; Function Attrs: nounwind sspstrong uwtable
define internal fastcc void @extract_ipv6_pktinfo(i64 noundef %0, ptr noundef nonnull %1, ptr noundef nonnull %2) unnamed_addr #0 {
  %4 = alloca i64, align 8
  %.pr.i.i = load i64, ptr @ancillary_level.rbimpl_id, align 8, !tbaa !6
  %.not4.i.i = icmp eq i64 %.pr.i.i, 0
  br i1 %.not4.i.i, label %.lr.ph.i.i, label %rbimpl_intern_const.exit.i

.lr.ph.i.i:                                       ; preds = %3, %.lr.ph.i.i
  %5 = tail call i64 @rb_intern2(ptr noundef nonnull @.str.4, i64 noundef 5) #10
  store i64 %5, ptr @ancillary_level.rbimpl_id, align 8, !tbaa !6
  %.not.i.i = icmp eq i64 %5, 0
  br i1 %.not.i.i, label %.lr.ph.i.i, label %rbimpl_intern_const.exit.i, !llvm.loop !17

rbimpl_intern_const.exit.i:                       ; preds = %.lr.ph.i.i, %3
  %.lcssa.i.i = phi i64 [ %.pr.i.i, %3 ], [ %5, %.lr.ph.i.i ]
  %6 = tail call i64 @rb_attr_get(i64 noundef %0, i64 noundef %.lcssa.i.i) #10
  %7 = and i64 %6, 1
  %.not.i3.i = icmp eq i64 %7, 0
  br i1 %.not.i3.i, label %10, label %8

8:                                                ; preds = %rbimpl_intern_const.exit.i
  %9 = tail call i64 @rb_fix2int(i64 noundef %6) #10
  br label %ancillary_level.exit

10:                                               ; preds = %rbimpl_intern_const.exit.i
  %11 = tail call i64 @rb_num2int(i64 noundef %6) #10
  br label %ancillary_level.exit

ancillary_level.exit:                             ; preds = %8, %10
  %.0.i.i = phi i64 [ %9, %8 ], [ %11, %10 ]
  %.pr.i.i19 = load i64, ptr @ancillary_type.rbimpl_id, align 8, !tbaa !6
  %.not4.i.i20 = icmp eq i64 %.pr.i.i19, 0
  br i1 %.not4.i.i20, label %.lr.ph.i.i25, label %rbimpl_intern_const.exit.i21

.lr.ph.i.i25:                                     ; preds = %ancillary_level.exit, %.lr.ph.i.i25
  %12 = tail call i64 @rb_intern2(ptr noundef nonnull @.str.5, i64 noundef 4) #10
  store i64 %12, ptr @ancillary_type.rbimpl_id, align 8, !tbaa !6
  %.not.i.i26 = icmp eq i64 %12, 0
  br i1 %.not.i.i26, label %.lr.ph.i.i25, label %rbimpl_intern_const.exit.i21, !llvm.loop !17

rbimpl_intern_const.exit.i21:                     ; preds = %.lr.ph.i.i25, %ancillary_level.exit
  %.lcssa.i.i22 = phi i64 [ %.pr.i.i19, %ancillary_level.exit ], [ %12, %.lr.ph.i.i25 ]
  %13 = tail call i64 @rb_attr_get(i64 noundef %0, i64 noundef %.lcssa.i.i22) #10
  %14 = and i64 %13, 1
  %.not.i3.i23 = icmp eq i64 %14, 0
  br i1 %.not.i3.i23, label %17, label %15

15:                                               ; preds = %rbimpl_intern_const.exit.i21
  %16 = tail call i64 @rb_fix2int(i64 noundef %13) #10
  br label %ancillary_type.exit

17:                                               ; preds = %rbimpl_intern_const.exit.i21
  %18 = tail call i64 @rb_num2int(i64 noundef %13) #10
  br label %ancillary_type.exit

ancillary_type.exit:                              ; preds = %15, %17
  %.0.i.i24 = phi i64 [ %16, %15 ], [ %18, %17 ]
  call void @llvm.lifetime.start.p0(i64 8, ptr nonnull %4) #10
  %.pr.i.i27 = load i64, ptr @ancillary_data.rbimpl_id, align 8, !tbaa !6
  %.not4.i.i28 = icmp eq i64 %.pr.i.i27, 0
  br i1 %.not4.i.i28, label %.lr.ph.i.i31, label %ancillary_data.exit

.lr.ph.i.i31:                                     ; preds = %ancillary_type.exit, %.lr.ph.i.i31
  %19 = tail call i64 @rb_intern2(ptr noundef nonnull @.str.6, i64 noundef 4) #10
  store i64 %19, ptr @ancillary_data.rbimpl_id, align 8, !tbaa !6
  %.not.i.i32 = icmp eq i64 %19, 0
  br i1 %.not.i.i32, label %.lr.ph.i.i31, label %ancillary_data.exit, !llvm.loop !17

ancillary_data.exit:                              ; preds = %.lr.ph.i.i31, %ancillary_type.exit
  %.lcssa.i.i30 = phi i64 [ %.pr.i.i27, %ancillary_type.exit ], [ %19, %.lr.ph.i.i31 ]
  %20 = tail call i64 @rb_attr_get(i64 noundef %0, i64 noundef %.lcssa.i.i30) #10
  store i64 %20, ptr %4, align 8, !tbaa !6
  %21 = call i64 @rb_string_value(ptr noundef nonnull %4) #10
  %22 = load i64, ptr %4, align 8, !tbaa !6
  call void @llvm.lifetime.end.p0(i64 8, ptr nonnull %4) #10
  %23 = and i64 %.0.i.i, 4294967295
  %24 = icmp ne i64 %23, 41
  %25 = and i64 %.0.i.i24, 4294967295
  %26 = icmp ne i64 %25, 50
  %or.cond = select i1 %24, i1 true, i1 %26
  br i1 %or.cond, label %31, label %27

27:                                               ; preds = %ancillary_data.exit
  %28 = inttoptr i64 %22 to ptr
  %29 = getelementptr inbounds nuw i8, ptr %28, i64 16
  %30 = load i64, ptr %29, align 8, !tbaa !19
  %.not = icmp eq i64 %30, 20
  br i1 %.not, label %33, label %31

31:                                               ; preds = %27, %ancillary_data.exit
  %32 = load i64, ptr @rb_eTypeError, align 8, !tbaa !6
  call void (i64, ptr, ...) @rb_raise(i64 noundef %32, ptr noundef nonnull @.str.66) #12
  unreachable

33:                                               ; preds = %27
  %34 = load i64, ptr %28, align 8, !tbaa !15, !noalias !141
  %35 = and i64 %34, 8192
  %.not.i.i33 = icmp eq i64 %35, 0
  %36 = getelementptr inbounds nuw i8, ptr %28, i64 24
  br i1 %.not.i.i33, label %RSTRING_PTR.exit, label %37

37:                                               ; preds = %33
  %.sroa.2.0.copyload.i = load ptr, ptr %36, align 8
  br label %RSTRING_PTR.exit

RSTRING_PTR.exit:                                 ; preds = %33, %37
  %.sroa.2.0.i = phi ptr [ %.sroa.2.0.copyload.i, %37 ], [ %36, %33 ]
  call void @llvm.memcpy.p0.p0.i64(ptr noundef nonnull align 1 dereferenceable(20) %1, ptr noundef nonnull readonly align 1 dereferenceable(20) %.sroa.2.0.i, i64 noundef range(i64 1, 0) 20, i1 noundef false) #10
  call void @llvm.memset.p0.i64(ptr noundef nonnull align 1 dereferenceable(28) %2, i8 noundef 0, i64 noundef 28, i1 noundef false) #10
  store i16 10, ptr %2, align 2, !tbaa !144
  %38 = getelementptr inbounds nuw i8, ptr %2, i64 8
  call void @llvm.memcpy.p0.p0.i64(ptr noundef nonnull align 1 dereferenceable(16) %38, ptr noundef nonnull readonly align 1 dereferenceable(16) %1, i64 noundef range(i64 1, 0) 16, i1 noundef false) #10
  %39 = load i32, ptr %38, align 4, !tbaa !16
  %40 = and i32 %39, 49407
  %41 = icmp eq i32 %40, 33022
  br i1 %41, label %42, label %46

42:                                               ; preds = %RSTRING_PTR.exit
  %43 = getelementptr inbounds nuw i8, ptr %1, i64 16
  %44 = load i32, ptr %43, align 4, !tbaa !138
  %45 = getelementptr inbounds nuw i8, ptr %2, i64 24
  store i32 %44, ptr %45, align 4, !tbaa !146
  br label %46

46:                                               ; preds = %42, %RSTRING_PTR.exit
  ret void
}